
bomb:     file format elf64-x86-64


Disassembly of section .init:

0000000000400b30 <_init>:
  400b30:	48 83 ec 08          	sub    $0x8,%rsp
  400b34:	48 8b 05 bd 24 20 00 	mov    0x2024bd(%rip),%rax        # 602ff8 <_DYNAMIC+0x1d8>
  400b3b:	48 85 c0             	test   %rax,%rax
  400b3e:	74 02                	je     400b42 <_init+0x12>
  400b40:	ff d0                	callq  *%rax
  400b42:	48 83 c4 08          	add    $0x8,%rsp
  400b46:	c3                   	retq   

Disassembly of section .plt:

0000000000400b50 <getenv@plt-0x10>:
  400b50:	ff 35 b2 24 20 00    	pushq  0x2024b2(%rip)        # 603008 <_GLOBAL_OFFSET_TABLE_+0x8>
  400b56:	ff 25 b4 24 20 00    	jmpq   *0x2024b4(%rip)        # 603010 <_GLOBAL_OFFSET_TABLE_+0x10>
  400b5c:	0f 1f 40 00          	nopl   0x0(%rax)

0000000000400b60 <getenv@plt>:
  400b60:	ff 25 b2 24 20 00    	jmpq   *0x2024b2(%rip)        # 603018 <_GLOBAL_OFFSET_TABLE_+0x18>
  400b66:	68 00 00 00 00       	pushq  $0x0
  400b6b:	e9 e0 ff ff ff       	jmpq   400b50 <_init+0x20>

0000000000400b70 <__errno_location@plt>:
  400b70:	ff 25 aa 24 20 00    	jmpq   *0x2024aa(%rip)        # 603020 <_GLOBAL_OFFSET_TABLE_+0x20>
  400b76:	68 01 00 00 00       	pushq  $0x1
  400b7b:	e9 d0 ff ff ff       	jmpq   400b50 <_init+0x20>

0000000000400b80 <strcpy@plt>:
  400b80:	ff 25 a2 24 20 00    	jmpq   *0x2024a2(%rip)        # 603028 <_GLOBAL_OFFSET_TABLE_+0x28>
  400b86:	68 02 00 00 00       	pushq  $0x2
  400b8b:	e9 c0 ff ff ff       	jmpq   400b50 <_init+0x20>

0000000000400b90 <puts@plt>:
  400b90:	ff 25 9a 24 20 00    	jmpq   *0x20249a(%rip)        # 603030 <_GLOBAL_OFFSET_TABLE_+0x30>
  400b96:	68 03 00 00 00       	pushq  $0x3
  400b9b:	e9 b0 ff ff ff       	jmpq   400b50 <_init+0x20>

0000000000400ba0 <write@plt>:
  400ba0:	ff 25 92 24 20 00    	jmpq   *0x202492(%rip)        # 603038 <_GLOBAL_OFFSET_TABLE_+0x38>
  400ba6:	68 04 00 00 00       	pushq  $0x4
  400bab:	e9 a0 ff ff ff       	jmpq   400b50 <_init+0x20>

0000000000400bb0 <fclose@plt>:
  400bb0:	ff 25 8a 24 20 00    	jmpq   *0x20248a(%rip)        # 603040 <_GLOBAL_OFFSET_TABLE_+0x40>
  400bb6:	68 05 00 00 00       	pushq  $0x5
  400bbb:	e9 90 ff ff ff       	jmpq   400b50 <_init+0x20>

0000000000400bc0 <system@plt>:
  400bc0:	ff 25 82 24 20 00    	jmpq   *0x202482(%rip)        # 603048 <_GLOBAL_OFFSET_TABLE_+0x48>
  400bc6:	68 06 00 00 00       	pushq  $0x6
  400bcb:	e9 80 ff ff ff       	jmpq   400b50 <_init+0x20>

0000000000400bd0 <printf@plt>:
  400bd0:	ff 25 7a 24 20 00    	jmpq   *0x20247a(%rip)        # 603050 <_GLOBAL_OFFSET_TABLE_+0x50>
  400bd6:	68 07 00 00 00       	pushq  $0x7
  400bdb:	e9 70 ff ff ff       	jmpq   400b50 <_init+0x20>

0000000000400be0 <rewind@plt>:
  400be0:	ff 25 72 24 20 00    	jmpq   *0x202472(%rip)        # 603058 <_GLOBAL_OFFSET_TABLE_+0x58>
  400be6:	68 08 00 00 00       	pushq  $0x8
  400beb:	e9 60 ff ff ff       	jmpq   400b50 <_init+0x20>

0000000000400bf0 <dup@plt>:
  400bf0:	ff 25 6a 24 20 00    	jmpq   *0x20246a(%rip)        # 603060 <_GLOBAL_OFFSET_TABLE_+0x60>
  400bf6:	68 09 00 00 00       	pushq  $0x9
  400bfb:	e9 50 ff ff ff       	jmpq   400b50 <_init+0x20>

0000000000400c00 <close@plt>:
  400c00:	ff 25 62 24 20 00    	jmpq   *0x202462(%rip)        # 603068 <_GLOBAL_OFFSET_TABLE_+0x68>
  400c06:	68 0a 00 00 00       	pushq  $0xa
  400c0b:	e9 40 ff ff ff       	jmpq   400b50 <_init+0x20>

0000000000400c10 <fputc@plt>:
  400c10:	ff 25 5a 24 20 00    	jmpq   *0x20245a(%rip)        # 603070 <_GLOBAL_OFFSET_TABLE_+0x70>
  400c16:	68 0b 00 00 00       	pushq  $0xb
  400c1b:	e9 30 ff ff ff       	jmpq   400b50 <_init+0x20>

0000000000400c20 <fgets@plt>:
  400c20:	ff 25 52 24 20 00    	jmpq   *0x202452(%rip)        # 603078 <_GLOBAL_OFFSET_TABLE_+0x78>
  400c26:	68 0c 00 00 00       	pushq  $0xc
  400c2b:	e9 20 ff ff ff       	jmpq   400b50 <_init+0x20>

0000000000400c30 <tmpfile@plt>:
  400c30:	ff 25 4a 24 20 00    	jmpq   *0x20244a(%rip)        # 603080 <_GLOBAL_OFFSET_TABLE_+0x80>
  400c36:	68 0d 00 00 00       	pushq  $0xd
  400c3b:	e9 10 ff ff ff       	jmpq   400b50 <_init+0x20>

0000000000400c40 <signal@plt>:
  400c40:	ff 25 42 24 20 00    	jmpq   *0x202442(%rip)        # 603088 <_GLOBAL_OFFSET_TABLE_+0x88>
  400c46:	68 0e 00 00 00       	pushq  $0xe
  400c4b:	e9 00 ff ff ff       	jmpq   400b50 <_init+0x20>

0000000000400c50 <gethostbyname@plt>:
  400c50:	ff 25 3a 24 20 00    	jmpq   *0x20243a(%rip)        # 603090 <_GLOBAL_OFFSET_TABLE_+0x90>
  400c56:	68 0f 00 00 00       	pushq  $0xf
  400c5b:	e9 f0 fe ff ff       	jmpq   400b50 <_init+0x20>

0000000000400c60 <fprintf@plt>:
  400c60:	ff 25 32 24 20 00    	jmpq   *0x202432(%rip)        # 603098 <_GLOBAL_OFFSET_TABLE_+0x98>
  400c66:	68 10 00 00 00       	pushq  $0x10
  400c6b:	e9 e0 fe ff ff       	jmpq   400b50 <_init+0x20>

0000000000400c70 <inet_pton@plt>:
  400c70:	ff 25 2a 24 20 00    	jmpq   *0x20242a(%rip)        # 6030a0 <_GLOBAL_OFFSET_TABLE_+0xa0>
  400c76:	68 11 00 00 00       	pushq  $0x11
  400c7b:	e9 d0 fe ff ff       	jmpq   400b50 <_init+0x20>

0000000000400c80 <fflush@plt>:
  400c80:	ff 25 22 24 20 00    	jmpq   *0x202422(%rip)        # 6030a8 <_GLOBAL_OFFSET_TABLE_+0xa8>
  400c86:	68 12 00 00 00       	pushq  $0x12
  400c8b:	e9 c0 fe ff ff       	jmpq   400b50 <_init+0x20>

0000000000400c90 <__isoc99_sscanf@plt>:
  400c90:	ff 25 1a 24 20 00    	jmpq   *0x20241a(%rip)        # 6030b0 <_GLOBAL_OFFSET_TABLE_+0xb0>
  400c96:	68 13 00 00 00       	pushq  $0x13
  400c9b:	e9 b0 fe ff ff       	jmpq   400b50 <_init+0x20>

0000000000400ca0 <bcopy@plt>:
  400ca0:	ff 25 12 24 20 00    	jmpq   *0x202412(%rip)        # 6030b8 <_GLOBAL_OFFSET_TABLE_+0xb8>
  400ca6:	68 14 00 00 00       	pushq  $0x14
  400cab:	e9 a0 fe ff ff       	jmpq   400b50 <_init+0x20>

0000000000400cb0 <cuserid@plt>:
  400cb0:	ff 25 0a 24 20 00    	jmpq   *0x20240a(%rip)        # 6030c0 <_GLOBAL_OFFSET_TABLE_+0xc0>
  400cb6:	68 15 00 00 00       	pushq  $0x15
  400cbb:	e9 90 fe ff ff       	jmpq   400b50 <_init+0x20>

0000000000400cc0 <fopen@plt>:
  400cc0:	ff 25 02 24 20 00    	jmpq   *0x202402(%rip)        # 6030c8 <_GLOBAL_OFFSET_TABLE_+0xc8>
  400cc6:	68 16 00 00 00       	pushq  $0x16
  400ccb:	e9 80 fe ff ff       	jmpq   400b50 <_init+0x20>

0000000000400cd0 <strcat@plt>:
  400cd0:	ff 25 fa 23 20 00    	jmpq   *0x2023fa(%rip)        # 6030d0 <_GLOBAL_OFFSET_TABLE_+0xd0>
  400cd6:	68 17 00 00 00       	pushq  $0x17
  400cdb:	e9 70 fe ff ff       	jmpq   400b50 <_init+0x20>

0000000000400ce0 <sprintf@plt>:
  400ce0:	ff 25 f2 23 20 00    	jmpq   *0x2023f2(%rip)        # 6030d8 <_GLOBAL_OFFSET_TABLE_+0xd8>
  400ce6:	68 18 00 00 00       	pushq  $0x18
  400ceb:	e9 60 fe ff ff       	jmpq   400b50 <_init+0x20>

0000000000400cf0 <exit@plt>:
  400cf0:	ff 25 ea 23 20 00    	jmpq   *0x2023ea(%rip)        # 6030e0 <_GLOBAL_OFFSET_TABLE_+0xe0>
  400cf6:	68 19 00 00 00       	pushq  $0x19
  400cfb:	e9 50 fe ff ff       	jmpq   400b50 <_init+0x20>

0000000000400d00 <connect@plt>:
  400d00:	ff 25 e2 23 20 00    	jmpq   *0x2023e2(%rip)        # 6030e8 <_GLOBAL_OFFSET_TABLE_+0xe8>
  400d06:	68 1a 00 00 00       	pushq  $0x1a
  400d0b:	e9 40 fe ff ff       	jmpq   400b50 <_init+0x20>

0000000000400d10 <fwrite@plt>:
  400d10:	ff 25 da 23 20 00    	jmpq   *0x2023da(%rip)        # 6030f0 <_GLOBAL_OFFSET_TABLE_+0xf0>
  400d16:	68 1b 00 00 00       	pushq  $0x1b
  400d1b:	e9 30 fe ff ff       	jmpq   400b50 <_init+0x20>

0000000000400d20 <sleep@plt>:
  400d20:	ff 25 d2 23 20 00    	jmpq   *0x2023d2(%rip)        # 6030f8 <_GLOBAL_OFFSET_TABLE_+0xf8>
  400d26:	68 1c 00 00 00       	pushq  $0x1c
  400d2b:	e9 20 fe ff ff       	jmpq   400b50 <_init+0x20>

0000000000400d30 <__ctype_b_loc@plt>:
  400d30:	ff 25 ca 23 20 00    	jmpq   *0x2023ca(%rip)        # 603100 <_GLOBAL_OFFSET_TABLE_+0x100>
  400d36:	68 1d 00 00 00       	pushq  $0x1d
  400d3b:	e9 10 fe ff ff       	jmpq   400b50 <_init+0x20>

0000000000400d40 <socket@plt>:
  400d40:	ff 25 c2 23 20 00    	jmpq   *0x2023c2(%rip)        # 603108 <_GLOBAL_OFFSET_TABLE_+0x108>
  400d46:	68 1e 00 00 00       	pushq  $0x1e
  400d4b:	e9 00 fe ff ff       	jmpq   400b50 <_init+0x20>

Disassembly of section .text:

0000000000400d50 <_start>:
  400d50:	31 ed                	xor    %ebp,%ebp
  400d52:	49 89 d1             	mov    %rdx,%r9
  400d55:	5e                   	pop    %rsi
  400d56:	48 89 e2             	mov    %rsp,%rdx
  400d59:	48 83 e4 f0          	and    $0xfffffffffffffff0,%rsp
  400d5d:	50                   	push   %rax
  400d5e:	54                   	push   %rsp
  400d5f:	49 c7 c0 40 1c 40 00 	mov    $0x401c40,%r8
  400d66:	48 c7 c1 d0 1b 40 00 	mov    $0x401bd0,%rcx
  400d6d:	48 c7 c7 46 0e 40 00 	mov    $0x400e46,%rdi
  400d74:	ff 15 76 22 20 00    	callq  *0x202276(%rip)        # 602ff0 <_DYNAMIC+0x1d0>
  400d7a:	f4                   	hlt    
  400d7b:	0f 1f 44 00 00       	nopl   0x0(%rax,%rax,1)

0000000000400d80 <deregister_tm_clones>:
  400d80:	b8 4f 35 60 00       	mov    $0x60354f,%eax
  400d85:	55                   	push   %rbp
  400d86:	48 2d 48 35 60 00    	sub    $0x603548,%rax
  400d8c:	48 83 f8 0e          	cmp    $0xe,%rax
  400d90:	48 89 e5             	mov    %rsp,%rbp
  400d93:	76 1b                	jbe    400db0 <deregister_tm_clones+0x30>
  400d95:	b8 00 00 00 00       	mov    $0x0,%eax
  400d9a:	48 85 c0             	test   %rax,%rax
  400d9d:	74 11                	je     400db0 <deregister_tm_clones+0x30>
  400d9f:	5d                   	pop    %rbp
  400da0:	bf 48 35 60 00       	mov    $0x603548,%edi
  400da5:	ff e0                	jmpq   *%rax
  400da7:	66 0f 1f 84 00 00 00 	nopw   0x0(%rax,%rax,1)
  400dae:	00 00 
  400db0:	5d                   	pop    %rbp
  400db1:	c3                   	retq   
  400db2:	0f 1f 40 00          	nopl   0x0(%rax)
  400db6:	66 2e 0f 1f 84 00 00 	nopw   %cs:0x0(%rax,%rax,1)
  400dbd:	00 00 00 

0000000000400dc0 <register_tm_clones>:
  400dc0:	be 48 35 60 00       	mov    $0x603548,%esi
  400dc5:	55                   	push   %rbp
  400dc6:	48 81 ee 48 35 60 00 	sub    $0x603548,%rsi
  400dcd:	48 c1 fe 03          	sar    $0x3,%rsi
  400dd1:	48 89 e5             	mov    %rsp,%rbp
  400dd4:	48 89 f0             	mov    %rsi,%rax
  400dd7:	48 c1 e8 3f          	shr    $0x3f,%rax
  400ddb:	48 01 c6             	add    %rax,%rsi
  400dde:	48 d1 fe             	sar    %rsi
  400de1:	74 15                	je     400df8 <register_tm_clones+0x38>
  400de3:	b8 00 00 00 00       	mov    $0x0,%eax
  400de8:	48 85 c0             	test   %rax,%rax
  400deb:	74 0b                	je     400df8 <register_tm_clones+0x38>
  400ded:	5d                   	pop    %rbp
  400dee:	bf 48 35 60 00       	mov    $0x603548,%edi
  400df3:	ff e0                	jmpq   *%rax
  400df5:	0f 1f 00             	nopl   (%rax)
  400df8:	5d                   	pop    %rbp
  400df9:	c3                   	retq   
  400dfa:	66 0f 1f 44 00 00    	nopw   0x0(%rax,%rax,1)

0000000000400e00 <__do_global_dtors_aux>:
  400e00:	80 3d 71 27 20 00 00 	cmpb   $0x0,0x202771(%rip)        # 603578 <completed.6972>
  400e07:	75 11                	jne    400e1a <__do_global_dtors_aux+0x1a>
  400e09:	55                   	push   %rbp
  400e0a:	48 89 e5             	mov    %rsp,%rbp
  400e0d:	e8 6e ff ff ff       	callq  400d80 <deregister_tm_clones>
  400e12:	5d                   	pop    %rbp
  400e13:	c6 05 5e 27 20 00 01 	movb   $0x1,0x20275e(%rip)        # 603578 <completed.6972>
  400e1a:	f3 c3                	repz retq 
  400e1c:	0f 1f 40 00          	nopl   0x0(%rax)

0000000000400e20 <frame_dummy>:
  400e20:	bf 18 2e 60 00       	mov    $0x602e18,%edi
  400e25:	48 83 3f 00          	cmpq   $0x0,(%rdi)
  400e29:	75 05                	jne    400e30 <frame_dummy+0x10>
  400e2b:	eb 93                	jmp    400dc0 <register_tm_clones>
  400e2d:	0f 1f 00             	nopl   (%rax)
  400e30:	b8 00 00 00 00       	mov    $0x0,%eax
  400e35:	48 85 c0             	test   %rax,%rax
  400e38:	74 f1                	je     400e2b <frame_dummy+0xb>
  400e3a:	55                   	push   %rbp
  400e3b:	48 89 e5             	mov    %rsp,%rbp
  400e3e:	ff d0                	callq  *%rax
  400e40:	5d                   	pop    %rbp
  400e41:	e9 7a ff ff ff       	jmpq   400dc0 <register_tm_clones>

0000000000400e46 <main>:
  400e46:	53                   	push   %rbx
  400e47:	83 ff 01             	cmp    $0x1,%edi
  400e4a:	0f 84 9e 00 00 00    	je     400eee <main+0xa8>
  400e50:	48 89 f3             	mov    %rsi,%rbx
  400e53:	83 ff 02             	cmp    $0x2,%edi
  400e56:	0f 85 c2 00 00 00    	jne    400f1e <main+0xd8>
  400e5c:	48 8b 7e 08          	mov    0x8(%rsi),%rdi
  400e60:	48 8d 35 b3 11 00 00 	lea    0x11b3(%rip),%rsi        # 40201a <array.3073+0x25a>
  400e67:	e8 54 fe ff ff       	callq  400cc0 <fopen@plt>
  400e6c:	48 89 05 0d 27 20 00 	mov    %rax,0x20270d(%rip)        # 603580 <infile>
  400e73:	48 85 c0             	test   %rax,%rax
  400e76:	0f 84 85 00 00 00    	je     400f01 <main+0xbb>
  400e7c:	e8 2d 04 00 00       	callq  4012ae <initialize_bomb>
  400e81:	48 8d 3d 38 0e 00 00 	lea    0xe38(%rip),%rdi        # 401cc0 <_IO_stdin_used+0x60>
  400e88:	e8 03 fd ff ff       	callq  400b90 <puts@plt>
  400e8d:	48 8d 3d 6c 0e 00 00 	lea    0xe6c(%rip),%rdi        # 401d00 <_IO_stdin_used+0xa0>
  400e94:	e8 f7 fc ff ff       	callq  400b90 <puts@plt>
  400e99:	e8 6b 0b 00 00       	callq  401a09 <read_line>
  400e9e:	48 89 c7             	mov    %rax,%rdi
  400ea1:	e8 96 00 00 00       	callq  400f3c <phase_1>
  400ea6:	e8 5f 0c 00 00       	callq  401b0a <phase_defused>
  400eab:	48 8d 3d 7e 0e 00 00 	lea    0xe7e(%rip),%rdi        # 401d30 <_IO_stdin_used+0xd0>
  400eb2:	e8 d9 fc ff ff       	callq  400b90 <puts@plt>
  400eb7:	e8 4d 0b 00 00       	callq  401a09 <read_line>
  400ebc:	48 89 c7             	mov    %rax,%rdi
  400ebf:	e8 98 00 00 00       	callq  400f5c <phase_2>
  400ec4:	e8 41 0c 00 00       	callq  401b0a <phase_defused>
  400ec9:	48 8d 3d cb 0d 00 00 	lea    0xdcb(%rip),%rdi        # 401c9b <_IO_stdin_used+0x3b>
  400ed0:	e8 bb fc ff ff       	callq  400b90 <puts@plt>
  400ed5:	e8 2f 0b 00 00       	callq  401a09 <read_line>
  400eda:	48 89 c7             	mov    %rax,%rdi
  400edd:	e8 b8 00 00 00       	callq  400f9a <phase_3>
  400ee2:	e8 23 0c 00 00       	callq  401b0a <phase_defused>
  400ee7:	b8 00 00 00 00       	mov    $0x0,%eax
  400eec:	5b                   	pop    %rbx
  400eed:	c3                   	retq   
  400eee:	48 8b 05 7b 26 20 00 	mov    0x20267b(%rip),%rax        # 603570 <stdin@@GLIBC_2.2.5>
  400ef5:	48 89 05 84 26 20 00 	mov    %rax,0x202684(%rip)        # 603580 <infile>
  400efc:	e9 7b ff ff ff       	jmpq   400e7c <main+0x36>
  400f01:	48 8b 53 08          	mov    0x8(%rbx),%rdx
  400f05:	48 8b 33             	mov    (%rbx),%rsi
  400f08:	48 8d 3d 55 0d 00 00 	lea    0xd55(%rip),%rdi        # 401c64 <_IO_stdin_used+0x4>
  400f0f:	e8 bc fc ff ff       	callq  400bd0 <printf@plt>
  400f14:	bf 08 00 00 00       	mov    $0x8,%edi
  400f19:	e8 d2 fd ff ff       	callq  400cf0 <exit@plt>
  400f1e:	48 8b 36             	mov    (%rsi),%rsi
  400f21:	48 8d 3d 59 0d 00 00 	lea    0xd59(%rip),%rdi        # 401c81 <_IO_stdin_used+0x21>
  400f28:	b8 00 00 00 00       	mov    $0x0,%eax
  400f2d:	e8 9e fc ff ff       	callq  400bd0 <printf@plt>
  400f32:	bf 08 00 00 00       	mov    $0x8,%edi
  400f37:	e8 b4 fd ff ff       	callq  400cf0 <exit@plt>

0000000000400f3c <phase_1>:
  400f3c:	48 83 ec 08          	sub    $0x8,%rsp
  400f40:	48 8d 35 19 0e 00 00 	lea    0xe19(%rip),%rsi        # 401d60 <_IO_stdin_used+0x100>
  400f47:	e8 30 02 00 00       	callq  40117c <strings_not_equal>
  400f4c:	85 c0                	test   %eax,%eax
  400f4e:	75 05                	jne    400f55 <phase_1+0x19>
  400f50:	48 83 c4 08          	add    $0x8,%rsp
  400f54:	c3                   	retq   
  400f55:	e8 32 0a 00 00       	callq  40198c <explode_bomb>
  400f5a:	eb f4                	jmp    400f50 <phase_1+0x14>

0000000000400f5c <phase_2>:
  400f5c:	55                   	push   %rbp
  400f5d:	53                   	push   %rbx
  400f5e:	48 83 ec 28          	sub    $0x28,%rsp
  400f62:	48 89 e3             	mov    %rsp,%rbx
  400f65:	48 89 e6             	mov    %rsp,%rsi
  400f68:	e8 5b 0a 00 00       	callq  4019c8 <read_six_numbers>
  400f6d:	bd 01 00 00 00       	mov    $0x1,%ebp
  400f72:	eb 0c                	jmp    ~400f80 <phase_2+0x24>

  *400f74:	83 c5 01            add    $0x1,%ebp
  400f77:	48 83 c3 04          	add    $0x4,%rbx
  400f7b:	83 fd 06             	cmp    $0x6,%ebp
  400f7e:	74 13                	je     400f93 <phase_2+0x37>
  ~400f80:	8b 03               mov    (%rbx),%eax
  400f82:	83 c0 04             	add    $0x4,%eax
  400f85:	29 e8                	sub    %ebp,%eax
  400f87:	39 43 04             	cmp    %eax,0x4(%rbx)
  400f8a:	74 e8                	je     *400f74 <phase_2+0x18>
  400f8c:	e8 fb 09 00 00       	callq  40198c <explode_bomb>
  400f91:	eb e1                	jmp    400f74 <phase_2+0x18>
  400f93:	48 83 c4 28          	add    $0x28,%rsp
  400f97:	5b                   	pop    %rbx
  400f98:	5d                   	pop    %rbp
  400f99:	c3                   	retq   

0000000000400f9a <phase_3>:
  400f9a:	48 83 ec 18          	sub    $0x18,%rsp
  400f9e:	48 8d 4c 24 08       	lea    0x8(%rsp),%rcx
  400fa3:	48 8d 54 24 0c       	lea    0xc(%rsp),%rdx
  400fa8:	48 8d 35 77 11 00 00 	lea    0x1177(%rip),%rsi        # 402126 <array.3073+0x366>
  400faf:	b8 00 00 00 00       	mov    $0x0,%eax
  400fb4:	e8 d7 fc ff ff       	callq  400c90 <__isoc99_sscanf@plt>
  400fb9:	83 f8 01             	cmp    $0x1,%eax
  400fbc:	7e 1f                	jle    400fdd <phase_3+0x43>
  400fbe:	83 7c 24 0c 07       	cmpl   $0x7,0xc(%rsp)
  400fc3:	0f 87 8b 00 00 00    	ja     401054 <phase_3+0xba>
  400fc9:	8b 44 24 0c          	mov    0xc(%rsp),%eax
  400fcd:	48 8d 15 cc 0d 00 00 	lea    0xdcc(%rip),%rdx        # 401da0 <_IO_stdin_used+0x140>
  400fd4:	48 63 04 82          	movslq (%rdx,%rax,4),%rax
  400fd8:	48 01 d0             	add    %rdx,%rax
  400fdb:	ff e0                	jmpq   *%rax
  400fdd:	e8 aa 09 00 00       	callq  40198c <explode_bomb>
  400fe2:	eb da                	jmp    400fbe <phase_3+0x24>
  400fe4:	b8 4e 03 00 00       	mov    $0x34e,%eax
  400fe9:	eb 05                	jmp    400ff0 <phase_3+0x56>
  400feb:	b8 00 00 00 00       	mov    $0x0,%eax
  400ff0:	2d d6 01 00 00       	sub    $0x1d6,%eax
  400ff5:	05 f9 02 00 00       	add    $0x2f9,%eax
  400ffa:	2d ff 01 00 00       	sub    $0x1ff,%eax
  400fff:	05 70 02 00 00       	add    $0x270,%eax
  401004:	2d 3b 03 00 00       	sub    $0x33b,%eax
  401009:	05 3b 03 00 00       	add    $0x33b,%eax
  40100e:	2d d4 03 00 00       	sub    $0x3d4,%eax
  401013:	83 7c 24 0c 05       	cmpl   $0x5,0xc(%rsp)
  401018:	7f 06                	jg     401020 <phase_3+0x86>
  40101a:	3b 44 24 08          	cmp    0x8(%rsp),%eax
  40101e:	74 05                	je     401025 <phase_3+0x8b>
  401020:	e8 67 09 00 00       	callq  40198c <explode_bomb>
  401025:	48 83 c4 18          	add    $0x18,%rsp
  401029:	c3                   	retq   
  40102a:	b8 00 00 00 00       	mov    $0x0,%eax
  40102f:	eb c4                	jmp    400ff5 <phase_3+0x5b>
  401031:	b8 00 00 00 00       	mov    $0x0,%eax
  401036:	eb c2                	jmp    400ffa <phase_3+0x60>
  401038:	b8 00 00 00 00       	mov    $0x0,%eax
  40103d:	eb c0                	jmp    400fff <phase_3+0x65>
  40103f:	b8 00 00 00 00       	mov    $0x0,%eax
  401044:	eb be                	jmp    401004 <phase_3+0x6a>
  401046:	b8 00 00 00 00       	mov    $0x0,%eax
  40104b:	eb bc                	jmp    401009 <phase_3+0x6f>
  40104d:	b8 00 00 00 00       	mov    $0x0,%eax
  401052:	eb ba                	jmp    40100e <phase_3+0x74>
  401054:	e8 33 09 00 00       	callq  40198c <explode_bomb>
  401059:	b8 00 00 00 00       	mov    $0x0,%eax
  40105e:	eb b3                	jmp    401013 <phase_3+0x79>

0000000000401060 <secret_phase>:
  401060:	48 83 ec 18          	sub    $0x18,%rsp
  401064:	e8 a0 09 00 00       	callq  401a09 <read_line>
  401069:	48 8d 4c 24 08       	lea    0x8(%rsp),%rcx
  40106e:	48 8d 54 24 0c       	lea    0xc(%rsp),%rdx
  401073:	48 8d 35 ac 10 00 00 	lea    0x10ac(%rip),%rsi        # 402126 <array.3073+0x366>
  40107a:	48 89 c7             	mov    %rax,%rdi
  40107d:	b8 00 00 00 00       	mov    $0x0,%eax
  401082:	e8 09 fc ff ff       	callq  400c90 <__isoc99_sscanf@plt>
  401087:	83 f8 01             	cmp    $0x1,%eax
  40108a:	7e 52                	jle    4010de <secret_phase+0x7e>
  40108c:	8b 44 24 0c          	mov    0xc(%rsp),%eax
  401090:	83 e0 0f             	and    $0xf,%eax
  401093:	89 44 24 0c          	mov    %eax,0xc(%rsp)
  401097:	83 f8 0f             	cmp    $0xf,%eax
  40109a:	74 33                	je     4010cf <secret_phase+0x6f>
  40109c:	b9 00 00 00 00       	mov    $0x0,%ecx
  4010a1:	ba 00 00 00 00       	mov    $0x0,%edx
  4010a6:	48 8d 35 13 0d 00 00 	lea    0xd13(%rip),%rsi        # 401dc0 <array.3073>
  4010ad:	83 c2 01             	add    $0x1,%edx
  4010b0:	48 98                	cltq   
  4010b2:	8b 04 86             	mov    (%rsi,%rax,4),%eax
  4010b5:	01 c1                	add    %eax,%ecx
  4010b7:	83 f8 0f             	cmp    $0xf,%eax
  4010ba:	75 f1                	jne    4010ad <secret_phase+0x4d>
  4010bc:	c7 44 24 0c 0f 00 00 	movl   $0xf,0xc(%rsp)
  4010c3:	00 
  4010c4:	83 fa 09             	cmp    $0x9,%edx
  4010c7:	75 06                	jne    4010cf <secret_phase+0x6f>
  4010c9:	3b 4c 24 08          	cmp    0x8(%rsp),%ecx
  4010cd:	74 05                	je     4010d4 <secret_phase+0x74>
  4010cf:	e8 b8 08 00 00       	callq  40198c <explode_bomb>
  4010d4:	e8 31 0a 00 00       	callq  401b0a <phase_defused>
  4010d9:	48 83 c4 18          	add    $0x18,%rsp
  4010dd:	c3                   	retq   
  4010de:	e8 a9 08 00 00       	callq  40198c <explode_bomb>
  4010e3:	eb a7                	jmp    40108c <secret_phase+0x2c>

00000000004010e5 <sig_handler>:
  4010e5:	48 83 ec 08          	sub    $0x8,%rsp
  4010e9:	48 8d 3d 10 0d 00 00 	lea    0xd10(%rip),%rdi        # 401e00 <array.3073+0x40>
  4010f0:	e8 9b fa ff ff       	callq  400b90 <puts@plt>
  4010f5:	bf 03 00 00 00       	mov    $0x3,%edi
  4010fa:	e8 21 fc ff ff       	callq  400d20 <sleep@plt>
  4010ff:	48 8d 3d 32 0e 00 00 	lea    0xe32(%rip),%rdi        # 401f38 <array.3073+0x178>
  401106:	b8 00 00 00 00       	mov    $0x0,%eax
  40110b:	e8 c0 fa ff ff       	callq  400bd0 <printf@plt>
  401110:	48 8b 3d 49 24 20 00 	mov    0x202449(%rip),%rdi        # 603560 <stdout@@GLIBC_2.2.5>
  401117:	e8 64 fb ff ff       	callq  400c80 <fflush@plt>
  40111c:	bf 01 00 00 00       	mov    $0x1,%edi
  401121:	e8 fa fb ff ff       	callq  400d20 <sleep@plt>
  401126:	48 8d 3d 13 0e 00 00 	lea    0xe13(%rip),%rdi        # 401f40 <array.3073+0x180>
  40112d:	e8 5e fa ff ff       	callq  400b90 <puts@plt>
  401132:	bf 10 00 00 00       	mov    $0x10,%edi
  401137:	e8 b4 fb ff ff       	callq  400cf0 <exit@plt>

000000000040113c <invalid_phase>:
  40113c:	48 83 ec 08          	sub    $0x8,%rsp
  401140:	48 89 fe             	mov    %rdi,%rsi
  401143:	48 8d 3d fe 0d 00 00 	lea    0xdfe(%rip),%rdi        # 401f48 <array.3073+0x188>
  40114a:	b8 00 00 00 00       	mov    $0x0,%eax
  40114f:	e8 7c fa ff ff       	callq  400bd0 <printf@plt>
  401154:	bf 08 00 00 00       	mov    $0x8,%edi
  401159:	e8 92 fb ff ff       	callq  400cf0 <exit@plt>

000000000040115e <string_length>:
  40115e:	80 3f 00             	cmpb   $0x0,(%rdi)
  401161:	74 13                	je     401176 <string_length+0x18>
  401163:	b8 00 00 00 00       	mov    $0x0,%eax
  401168:	48 83 c7 01          	add    $0x1,%rdi
  40116c:	83 c0 01             	add    $0x1,%eax
  40116f:	80 3f 00             	cmpb   $0x0,(%rdi)
  401172:	75 f4                	jne    401168 <string_length+0xa>
  401174:	f3 c3                	repz retq 
  401176:	b8 00 00 00 00       	mov    $0x0,%eax
  40117b:	c3                   	retq   

000000000040117c <strings_not_equal>:
  40117c:	41 54                	push   %r12
  40117e:	55                   	push   %rbp
  40117f:	53                   	push   %rbx
  401180:	48 89 fb             	mov    %rdi,%rbx
  401183:	48 89 f5             	mov    %rsi,%rbp
  401186:	e8 d3 ff ff ff       	callq  40115e <string_length>
  40118b:	41 89 c4             	mov    %eax,%r12d
  40118e:	48 89 ef             	mov    %rbp,%rdi
  401191:	e8 c8 ff ff ff       	callq  40115e <string_length>
  401196:	ba 01 00 00 00       	mov    $0x1,%edx
  40119b:	41 39 c4             	cmp    %eax,%r12d
  40119e:	74 07                	je     4011a7 <strings_not_equal+0x2b>
  4011a0:	89 d0                	mov    %edx,%eax
  4011a2:	5b                   	pop    %rbx
  4011a3:	5d                   	pop    %rbp
  4011a4:	41 5c                	pop    %r12
  4011a6:	c3                   	retq   
  4011a7:	0f b6 03             	movzbl (%rbx),%eax
  4011aa:	84 c0                	test   %al,%al
  4011ac:	74 27                	je     4011d5 <strings_not_equal+0x59>
  4011ae:	3a 45 00             	cmp    0x0(%rbp),%al
  4011b1:	75 29                	jne    4011dc <strings_not_equal+0x60>
  4011b3:	48 83 c3 01          	add    $0x1,%rbx
  4011b7:	48 83 c5 01          	add    $0x1,%rbp
  4011bb:	0f b6 03             	movzbl (%rbx),%eax
  4011be:	84 c0                	test   %al,%al
  4011c0:	74 0c                	je     4011ce <strings_not_equal+0x52>
  4011c2:	3a 45 00             	cmp    0x0(%rbp),%al
  4011c5:	74 ec                	je     4011b3 <strings_not_equal+0x37>
  4011c7:	ba 01 00 00 00       	mov    $0x1,%edx
  4011cc:	eb d2                	jmp    4011a0 <strings_not_equal+0x24>
  4011ce:	ba 00 00 00 00       	mov    $0x0,%edx
  4011d3:	eb cb                	jmp    4011a0 <strings_not_equal+0x24>
  4011d5:	ba 00 00 00 00       	mov    $0x0,%edx
  4011da:	eb c4                	jmp    4011a0 <strings_not_equal+0x24>
  4011dc:	ba 01 00 00 00       	mov    $0x1,%edx
  4011e1:	eb bd                	jmp    4011a0 <strings_not_equal+0x24>

00000000004011e3 <open_clientfd>:
  4011e3:	41 54                	push   %r12
  4011e5:	55                   	push   %rbp
  4011e6:	53                   	push   %rbx
  4011e7:	48 83 ec 10          	sub    $0x10,%rsp
  4011eb:	49 89 fc             	mov    %rdi,%r12
  4011ee:	89 f3                	mov    %esi,%ebx
  4011f0:	ba 00 00 00 00       	mov    $0x0,%edx
  4011f5:	be 01 00 00 00       	mov    $0x1,%esi
  4011fa:	bf 02 00 00 00       	mov    $0x2,%edi
  4011ff:	e8 3c fb ff ff       	callq  400d40 <socket@plt>
  401204:	85 c0                	test   %eax,%eax
  401206:	78 64                	js     40126c <open_clientfd+0x89>
  401208:	89 c5                	mov    %eax,%ebp
  40120a:	4c 89 e7             	mov    %r12,%rdi
  40120d:	e8 3e fa ff ff       	callq  400c50 <gethostbyname@plt>
  401212:	48 85 c0             	test   %rax,%rax
  401215:	74 6b                	je     401282 <open_clientfd+0x9f>
  401217:	48 c7 04 24 00 00 00 	movq   $0x0,(%rsp)
  40121e:	00 
  40121f:	48 c7 44 24 08 00 00 	movq   $0x0,0x8(%rsp)
  401226:	00 00 
  401228:	66 c7 04 24 02 00    	movw   $0x2,(%rsp)
  40122e:	48 63 50 14          	movslq 0x14(%rax),%rdx
  401232:	48 8d 74 24 04       	lea    0x4(%rsp),%rsi
  401237:	48 8b 40 18          	mov    0x18(%rax),%rax
  40123b:	48 8b 38             	mov    (%rax),%rdi
  40123e:	e8 5d fa ff ff       	callq  400ca0 <bcopy@plt>
  401243:	89 de                	mov    %ebx,%esi
  401245:	66 c1 ce 08          	ror    $0x8,%si
  401249:	66 89 74 24 02       	mov    %si,0x2(%rsp)
  40124e:	ba 10 00 00 00       	mov    $0x10,%edx
  401253:	48 89 e6             	mov    %rsp,%rsi
  401256:	89 ef                	mov    %ebp,%edi
  401258:	e8 a3 fa ff ff       	callq  400d00 <connect@plt>
  40125d:	85 c0                	test   %eax,%eax
  40125f:	78 37                	js     401298 <open_clientfd+0xb5>
  401261:	89 e8                	mov    %ebp,%eax
  401263:	48 83 c4 10          	add    $0x10,%rsp
  401267:	5b                   	pop    %rbx
  401268:	5d                   	pop    %rbp
  401269:	41 5c                	pop    %r12
  40126b:	c3                   	retq   
  40126c:	48 8d 3d e6 0c 00 00 	lea    0xce6(%rip),%rdi        # 401f59 <array.3073+0x199>
  401273:	e8 18 f9 ff ff       	callq  400b90 <puts@plt>
  401278:	bf 08 00 00 00       	mov    $0x8,%edi
  40127d:	e8 6e fa ff ff       	callq  400cf0 <exit@plt>
  401282:	48 8d 3d de 0c 00 00 	lea    0xcde(%rip),%rdi        # 401f67 <array.3073+0x1a7>
  401289:	e8 02 f9 ff ff       	callq  400b90 <puts@plt>
  40128e:	bf 08 00 00 00       	mov    $0x8,%edi
  401293:	e8 58 fa ff ff       	callq  400cf0 <exit@plt>
  401298:	48 8d 3d d6 0c 00 00 	lea    0xcd6(%rip),%rdi        # 401f75 <array.3073+0x1b5>
  40129f:	e8 ec f8 ff ff       	callq  400b90 <puts@plt>
  4012a4:	bf 08 00 00 00       	mov    $0x8,%edi
  4012a9:	e8 42 fa ff ff       	callq  400cf0 <exit@plt>

00000000004012ae <initialize_bomb>:
  4012ae:	48 83 ec 08          	sub    $0x8,%rsp
  4012b2:	48 8d 35 2c fe ff ff 	lea    -0x1d4(%rip),%rsi        # 4010e5 <sig_handler>
  4012b9:	bf 02 00 00 00       	mov    $0x2,%edi
  4012be:	e8 7d f9 ff ff       	callq  400c40 <signal@plt>
  4012c3:	be 50 00 00 00       	mov    $0x50,%esi
  4012c8:	48 8d 3d b4 0c 00 00 	lea    0xcb4(%rip),%rdi        # 401f83 <array.3073+0x1c3>
  4012cf:	e8 0f ff ff ff       	callq  4011e3 <open_clientfd>
  4012d4:	89 c7                	mov    %eax,%edi
  4012d6:	e8 25 f9 ff ff       	callq  400c00 <close@plt>
  4012db:	48 83 c4 08          	add    $0x8,%rsp
  4012df:	c3                   	retq   

00000000004012e0 <blank_line>:
  4012e0:	55                   	push   %rbp
  4012e1:	53                   	push   %rbx
  4012e2:	48 83 ec 08          	sub    $0x8,%rsp
  4012e6:	48 89 fd             	mov    %rdi,%rbp
  4012e9:	0f b6 5d 00          	movzbl 0x0(%rbp),%ebx
  4012ed:	84 db                	test   %bl,%bl
  4012ef:	74 1e                	je     40130f <blank_line+0x2f>
  4012f1:	e8 3a fa ff ff       	callq  400d30 <__ctype_b_loc@plt>
  4012f6:	48 83 c5 01          	add    $0x1,%rbp
  4012fa:	48 0f be db          	movsbq %bl,%rbx
  4012fe:	48 8b 00             	mov    (%rax),%rax
  401301:	f6 44 58 01 20       	testb  $0x20,0x1(%rax,%rbx,2)
  401306:	75 e1                	jne    4012e9 <blank_line+0x9>
  401308:	b8 00 00 00 00       	mov    $0x0,%eax
  40130d:	eb 05                	jmp    401314 <blank_line+0x34>
  40130f:	b8 01 00 00 00       	mov    $0x1,%eax
  401314:	48 83 c4 08          	add    $0x8,%rsp
  401318:	5b                   	pop    %rbx
  401319:	5d                   	pop    %rbp
  40131a:	c3                   	retq   

000000000040131b <skip>:
  40131b:	55                   	push   %rbp
  40131c:	53                   	push   %rbx
  40131d:	48 83 ec 08          	sub    $0x8,%rsp
  401321:	48 8d 2d 78 22 20 00 	lea    0x202278(%rip),%rbp        # 6035a0 <input_strings>
  401328:	48 63 05 4d 22 20 00 	movslq 0x20224d(%rip),%rax        # 60357c <num_input_strings>
  40132f:	48 8d 3c 80          	lea    (%rax,%rax,4),%rdi
  401333:	48 c1 e7 04          	shl    $0x4,%rdi
  401337:	48 01 ef             	add    %rbp,%rdi
  40133a:	48 8b 15 3f 22 20 00 	mov    0x20223f(%rip),%rdx        # 603580 <infile>
  401341:	be 50 00 00 00       	mov    $0x50,%esi
  401346:	e8 d5 f8 ff ff       	callq  400c20 <fgets@plt>
  40134b:	48 89 c3             	mov    %rax,%rbx
  40134e:	48 85 c0             	test   %rax,%rax
  401351:	74 0c                	je     40135f <skip+0x44>
  401353:	48 89 c7             	mov    %rax,%rdi
  401356:	e8 85 ff ff ff       	callq  4012e0 <blank_line>
  40135b:	85 c0                	test   %eax,%eax
  40135d:	75 c9                	jne    401328 <skip+0xd>
  40135f:	48 89 d8             	mov    %rbx,%rax
  401362:	48 83 c4 08          	add    $0x8,%rsp
  401366:	5b                   	pop    %rbx
  401367:	5d                   	pop    %rbp
  401368:	c3                   	retq   

0000000000401369 <writen>:
  401369:	41 56                	push   %r14
  40136b:	41 55                	push   %r13
  40136d:	41 54                	push   %r12
  40136f:	55                   	push   %rbp
  401370:	53                   	push   %rbx
  401371:	49 89 d5             	mov    %rdx,%r13
  401374:	48 85 d2             	test   %rdx,%rdx
  401377:	74 3b                	je     4013b4 <writen+0x4b>
  401379:	41 89 fc             	mov    %edi,%r12d
  40137c:	48 89 f5             	mov    %rsi,%rbp
  40137f:	48 89 d3             	mov    %rdx,%rbx
  401382:	41 be 00 00 00 00    	mov    $0x0,%r14d
  401388:	eb 08                	jmp    401392 <writen+0x29>
  40138a:	48 01 c5             	add    %rax,%rbp
  40138d:	48 29 c3             	sub    %rax,%rbx
  401390:	74 22                	je     4013b4 <writen+0x4b>
  401392:	48 89 da             	mov    %rbx,%rdx
  401395:	48 89 ee             	mov    %rbp,%rsi
  401398:	44 89 e7             	mov    %r12d,%edi
  40139b:	e8 00 f8 ff ff       	callq  400ba0 <write@plt>
  4013a0:	48 85 c0             	test   %rax,%rax
  4013a3:	7f e5                	jg     40138a <writen+0x21>
  4013a5:	e8 c6 f7 ff ff       	callq  400b70 <__errno_location@plt>
  4013aa:	83 38 04             	cmpl   $0x4,(%rax)
  4013ad:	75 11                	jne    4013c0 <writen+0x57>
  4013af:	4c 89 f0             	mov    %r14,%rax
  4013b2:	eb d6                	jmp    40138a <writen+0x21>
  4013b4:	4c 89 e8             	mov    %r13,%rax
  4013b7:	5b                   	pop    %rbx
  4013b8:	5d                   	pop    %rbp
  4013b9:	41 5c                	pop    %r12
  4013bb:	41 5d                	pop    %r13
  4013bd:	41 5e                	pop    %r14
  4013bf:	c3                   	retq   
  4013c0:	48 c7 c0 ff ff ff ff 	mov    $0xffffffffffffffff,%rax
  4013c7:	eb ee                	jmp    4013b7 <writen+0x4e>

00000000004013c9 <send_msg>:
  4013c9:	41 57                	push   %r15
  4013cb:	41 56                	push   %r14
  4013cd:	41 55                	push   %r13
  4013cf:	41 54                	push   %r12
  4013d1:	55                   	push   %rbp
  4013d2:	53                   	push   %rbx
  4013d3:	48 81 ec 68 24 00 00 	sub    $0x2468,%rsp
  4013da:	41 89 fc             	mov    %edi,%r12d
  4013dd:	ba 00 00 00 00       	mov    $0x0,%edx
  4013e2:	be 01 00 00 00       	mov    $0x1,%esi
  4013e7:	bf 02 00 00 00       	mov    $0x2,%edi
  4013ec:	e8 4f f9 ff ff       	callq  400d40 <socket@plt>
  4013f1:	41 89 c7             	mov    %eax,%r15d
  4013f4:	85 c0                	test   %eax,%eax
  4013f6:	0f 88 2a 02 00 00    	js     401626 <send_msg+0x25d>
  4013fc:	48 c7 84 24 50 24 00 	movq   $0x0,0x2450(%rsp)
  401403:	00 00 00 00 00 
  401408:	48 c7 84 24 58 24 00 	movq   $0x0,0x2458(%rsp)
  40140f:	00 00 00 00 00 
  401414:	66 c7 84 24 50 24 00 	movw   $0x2,0x2450(%rsp)
  40141b:	00 02 00 
  40141e:	66 c7 84 24 52 24 00 	movw   $0x62cc,0x2452(%rsp)
  401425:	00 cc 62 
  401428:	48 8d 94 24 54 24 00 	lea    0x2454(%rsp),%rdx
  40142f:	00 
  401430:	48 8d 35 4c 0b 00 00 	lea    0xb4c(%rip),%rsi        # 401f83 <array.3073+0x1c3>
  401437:	bf 02 00 00 00       	mov    $0x2,%edi
  40143c:	b8 00 00 00 00       	mov    $0x0,%eax
  401441:	e8 2a f8 ff ff       	callq  400c70 <inet_pton@plt>
  401446:	85 c0                	test   %eax,%eax
  401448:	0f 88 09 02 00 00    	js     401657 <send_msg+0x28e>
  40144e:	48 8d b4 24 50 24 00 	lea    0x2450(%rsp),%rsi
  401455:	00 
  401456:	ba 10 00 00 00       	mov    $0x10,%edx
  40145b:	44 89 ff             	mov    %r15d,%edi
  40145e:	e8 9d f8 ff ff       	callq  400d00 <connect@plt>
  401463:	85 c0                	test   %eax,%eax
  401465:	0f 88 22 02 00 00    	js     40168d <send_msg+0x2c4>
  40146b:	48 8d 6c 24 50       	lea    0x50(%rsp),%rbp
  401470:	48 b8 53 75 62 6a 65 	movabs $0x3a7463656a627553,%rax
  401477:	63 74 3a 
  40147a:	48 89 44 24 50       	mov    %rax,0x50(%rsp)
  40147f:	48 b8 20 42 6f 6d 62 	movabs $0x6f6e20626d6f4220,%rax
  401486:	20 6e 6f 
  401489:	48 89 44 24 58       	mov    %rax,0x58(%rsp)
  40148e:	48 b8 74 69 66 69 63 	movabs $0x6974616369666974,%rax
  401495:	61 74 69 
  401498:	48 89 44 24 60       	mov    %rax,0x60(%rsp)
  40149d:	c7 44 24 68 6f 6e 0a 	movl   $0xa6e6f,0x68(%rsp)
  4014a4:	00 
  4014a5:	48 8d 9c 24 50 04 00 	lea    0x450(%rsp),%rbx
  4014ac:	00 
  4014ad:	48 89 ee             	mov    %rbp,%rsi
  4014b0:	48 89 df             	mov    %rbx,%rdi
  4014b3:	e8 18 f8 ff ff       	callq  400cd0 <strcat@plt>
  4014b8:	66 c7 44 24 50 0a 00 	movw   $0xa,0x50(%rsp)
  4014bf:	48 89 ee             	mov    %rbp,%rsi
  4014c2:	48 89 df             	mov    %rbx,%rdi
  4014c5:	e8 06 f8 ff ff       	callq  400cd0 <strcat@plt>
  4014ca:	bf 00 00 00 00       	mov    $0x0,%edi
  4014cf:	e8 dc f7 ff ff       	callq  400cb0 <cuserid@plt>
  4014d4:	48 85 c0             	test   %rax,%rax
  4014d7:	0f 84 e6 01 00 00    	je     4016c3 <send_msg+0x2fa>
  4014dd:	48 89 e7             	mov    %rsp,%rdi
  4014e0:	48 89 c6             	mov    %rax,%rsi
  4014e3:	e8 98 f6 ff ff       	callq  400b80 <strcpy@plt>
  4014e8:	45 85 e4             	test   %r12d,%r12d
  4014eb:	48 8d 05 a7 0a 00 00 	lea    0xaa7(%rip),%rax        # 401f99 <array.3073+0x1d9>
  4014f2:	4c 8d 0d 98 0a 00 00 	lea    0xa98(%rip),%r9        # 401f91 <array.3073+0x1d1>
  4014f9:	4c 0f 44 c8          	cmove  %rax,%r9
  4014fd:	48 8d 5c 24 50       	lea    0x50(%rsp),%rbx
  401502:	48 83 ec 08          	sub    $0x8,%rsp
  401506:	8b 05 70 20 20 00    	mov    0x202070(%rip),%eax        # 60357c <num_input_strings>
  40150c:	50                   	push   %rax
  40150d:	4c 8d 44 24 10       	lea    0x10(%rsp),%r8
  401512:	8b 0d 28 20 20 00    	mov    0x202028(%rip),%ecx        # 603540 <bomb_id>
  401518:	48 8d 15 21 1c 20 00 	lea    0x201c21(%rip),%rdx        # 603140 <lab_id>
  40151f:	48 8d 35 97 0a 00 00 	lea    0xa97(%rip),%rsi        # 401fbd <array.3073+0x1fd>
  401526:	48 89 df             	mov    %rbx,%rdi
  401529:	b8 00 00 00 00       	mov    $0x0,%eax
  40152e:	e8 ad f7 ff ff       	callq  400ce0 <sprintf@plt>
  401533:	48 8d bc 24 60 04 00 	lea    0x460(%rsp),%rdi
  40153a:	00 
  40153b:	48 89 de             	mov    %rbx,%rsi
  40153e:	e8 8d f7 ff ff       	callq  400cd0 <strcat@plt>
  401543:	48 83 c4 10          	add    $0x10,%rsp
  401547:	83 3d 2e 20 20 00 00 	cmpl   $0x0,0x20202e(%rip)        # 60357c <num_input_strings>
  40154e:	7e 70                	jle    4015c0 <send_msg+0x1f7>
  401550:	bb 00 00 00 00       	mov    $0x0,%ebx
  401555:	4c 8d 35 44 20 20 00 	lea    0x202044(%rip),%r14        # 6035a0 <input_strings>
  40155c:	49 89 e5             	mov    %rsp,%r13
  40155f:	48 8d 6c 24 50       	lea    0x50(%rsp),%rbp
  401564:	4c 8d a4 24 50 04 00 	lea    0x450(%rsp),%r12
  40156b:	00 
  40156c:	48 63 c3             	movslq %ebx,%rax
  40156f:	48 8d 04 80          	lea    (%rax,%rax,4),%rax
  401573:	48 c1 e0 04          	shl    $0x4,%rax
  401577:	4c 01 f0             	add    %r14,%rax
  40157a:	83 c3 01             	add    $0x1,%ebx
  40157d:	48 83 ec 08          	sub    $0x8,%rsp
  401581:	50                   	push   %rax
  401582:	41 89 d9             	mov    %ebx,%r9d
  401585:	4d 89 e8             	mov    %r13,%r8
  401588:	8b 0d b2 1f 20 00    	mov    0x201fb2(%rip),%ecx        # 603540 <bomb_id>
  40158e:	48 8d 15 ab 1b 20 00 	lea    0x201bab(%rip),%rdx        # 603140 <lab_id>
  401595:	48 8d 35 3d 0a 00 00 	lea    0xa3d(%rip),%rsi        # 401fd9 <array.3073+0x219>
  40159c:	48 89 ef             	mov    %rbp,%rdi
  40159f:	b8 00 00 00 00       	mov    $0x0,%eax
  4015a4:	e8 37 f7 ff ff       	callq  400ce0 <sprintf@plt>
  4015a9:	48 89 ee             	mov    %rbp,%rsi
  4015ac:	4c 89 e7             	mov    %r12,%rdi
  4015af:	e8 1c f7 ff ff       	callq  400cd0 <strcat@plt>
  4015b4:	48 83 c4 10          	add    $0x10,%rsp
  4015b8:	39 1d be 1f 20 00    	cmp    %ebx,0x201fbe(%rip)        # 60357c <num_input_strings>
  4015be:	7f ac                	jg     40156c <send_msg+0x1a3>
  4015c0:	48 8d ac 24 50 04 00 	lea    0x450(%rsp),%rbp
  4015c7:	00 
  4015c8:	49 c7 c4 ff ff ff ff 	mov    $0xffffffffffffffff,%r12
  4015cf:	bb 00 00 00 00       	mov    $0x0,%ebx
  4015d4:	4c 89 e1             	mov    %r12,%rcx
  4015d7:	48 89 ef             	mov    %rbp,%rdi
  4015da:	89 d8                	mov    %ebx,%eax
  4015dc:	f2 ae                	repnz scas %es:(%rdi),%al
  4015de:	48 f7 d1             	not    %rcx
  4015e1:	4a 8d 14 21          	lea    (%rcx,%r12,1),%rdx
  4015e5:	48 89 ee             	mov    %rbp,%rsi
  4015e8:	44 89 ff             	mov    %r15d,%edi
  4015eb:	e8 79 fd ff ff       	callq  401369 <writen>
  4015f0:	48 89 c2             	mov    %rax,%rdx
  4015f3:	4c 89 e1             	mov    %r12,%rcx
  4015f6:	48 89 ef             	mov    %rbp,%rdi
  4015f9:	89 d8                	mov    %ebx,%eax
  4015fb:	f2 ae                	repnz scas %es:(%rdi),%al
  4015fd:	48 f7 d1             	not    %rcx
  401600:	4c 01 e1             	add    %r12,%rcx
  401603:	48 39 ca             	cmp    %rcx,%rdx
  401606:	0f 82 cf 00 00 00    	jb     4016db <send_msg+0x312>
  40160c:	44 89 ff             	mov    %r15d,%edi
  40160f:	e8 ec f5 ff ff       	callq  400c00 <close@plt>
  401614:	48 81 c4 68 24 00 00 	add    $0x2468,%rsp
  40161b:	5b                   	pop    %rbx
  40161c:	5d                   	pop    %rbp
  40161d:	41 5c                	pop    %r12
  40161f:	41 5d                	pop    %r13
  401621:	41 5e                	pop    %r14
  401623:	41 5f                	pop    %r15
  401625:	c3                   	retq   
  401626:	48 8d 15 75 09 00 00 	lea    0x975(%rip),%rdx        # 401fa2 <array.3073+0x1e2>
  40162d:	48 8d 35 49 06 00 00 	lea    0x649(%rip),%rsi        # 401c7d <_IO_stdin_used+0x1d>
  401634:	48 8b 3d 25 1f 20 00 	mov    0x201f25(%rip),%rdi        # 603560 <stdout@@GLIBC_2.2.5>
  40163b:	b8 00 00 00 00       	mov    $0x0,%eax
  401640:	e8 1b f6 ff ff       	callq  400c60 <fprintf@plt>
  401645:	44 89 ff             	mov    %r15d,%edi
  401648:	e8 b3 f5 ff ff       	callq  400c00 <close@plt>
  40164d:	bf 01 00 00 00       	mov    $0x1,%edi
  401652:	e8 99 f6 ff ff       	callq  400cf0 <exit@plt>
  401657:	48 8d 15 b8 09 00 00 	lea    0x9b8(%rip),%rdx        # 402016 <array.3073+0x256>
  40165e:	48 8d 35 18 06 00 00 	lea    0x618(%rip),%rsi        # 401c7d <_IO_stdin_used+0x1d>
  401665:	48 8b 3d f4 1e 20 00 	mov    0x201ef4(%rip),%rdi        # 603560 <stdout@@GLIBC_2.2.5>
  40166c:	b8 00 00 00 00       	mov    $0x0,%eax
  401671:	e8 ea f5 ff ff       	callq  400c60 <fprintf@plt>
  401676:	45 85 ff             	test   %r15d,%r15d
  401679:	74 08                	je     401683 <send_msg+0x2ba>
  40167b:	44 89 ff             	mov    %r15d,%edi
  40167e:	e8 7d f5 ff ff       	callq  400c00 <close@plt>
  401683:	bf 01 00 00 00       	mov    $0x1,%edi
  401688:	e8 63 f6 ff ff       	callq  400cf0 <exit@plt>
  40168d:	48 8d 15 1b 09 00 00 	lea    0x91b(%rip),%rdx        # 401faf <array.3073+0x1ef>
  401694:	48 8d 35 e2 05 00 00 	lea    0x5e2(%rip),%rsi        # 401c7d <_IO_stdin_used+0x1d>
  40169b:	48 8b 3d be 1e 20 00 	mov    0x201ebe(%rip),%rdi        # 603560 <stdout@@GLIBC_2.2.5>
  4016a2:	b8 00 00 00 00       	mov    $0x0,%eax
  4016a7:	e8 b4 f5 ff ff       	callq  400c60 <fprintf@plt>
  4016ac:	45 85 ff             	test   %r15d,%r15d
  4016af:	74 08                	je     4016b9 <send_msg+0x2f0>
  4016b1:	44 89 ff             	mov    %r15d,%edi
  4016b4:	e8 47 f5 ff ff       	callq  400c00 <close@plt>
  4016b9:	bf 01 00 00 00       	mov    $0x1,%edi
  4016be:	e8 2d f6 ff ff       	callq  400cf0 <exit@plt>
  4016c3:	c7 04 24 6e 6f 62 6f 	movl   $0x6f626f6e,(%rsp)
  4016ca:	66 c7 44 24 04 64 79 	movw   $0x7964,0x4(%rsp)
  4016d1:	c6 44 24 06 00       	movb   $0x0,0x6(%rsp)
  4016d6:	e9 0d fe ff ff       	jmpq   4014e8 <send_msg+0x11f>
  4016db:	48 8d 15 13 09 00 00 	lea    0x913(%rip),%rdx        # 401ff5 <array.3073+0x235>
  4016e2:	48 8d 35 94 05 00 00 	lea    0x594(%rip),%rsi        # 401c7d <_IO_stdin_used+0x1d>
  4016e9:	48 8b 3d 70 1e 20 00 	mov    0x201e70(%rip),%rdi        # 603560 <stdout@@GLIBC_2.2.5>
  4016f0:	e8 6b f5 ff ff       	callq  400c60 <fprintf@plt>
  4016f5:	45 85 ff             	test   %r15d,%r15d
  4016f8:	74 08                	je     401702 <send_msg+0x339>
  4016fa:	44 89 ff             	mov    %r15d,%edi
  4016fd:	e8 fe f4 ff ff       	callq  400c00 <close@plt>
  401702:	bf 01 00 00 00       	mov    $0x1,%edi
  401707:	e8 e4 f5 ff ff       	callq  400cf0 <exit@plt>

000000000040170c <send_msg_2>:
  40170c:	41 57                	push   %r15
  40170e:	41 56                	push   %r14
  401710:	41 55                	push   %r13
  401712:	41 54                	push   %r12
  401714:	55                   	push   %rbp
  401715:	53                   	push   %rbx
  401716:	48 83 ec 68          	sub    $0x68,%rsp
  40171a:	89 fb                	mov    %edi,%ebx
  40171c:	bf 00 00 00 00       	mov    $0x0,%edi
  401721:	e8 ca f4 ff ff       	callq  400bf0 <dup@plt>
  401726:	89 44 24 0c          	mov    %eax,0xc(%rsp)
  40172a:	83 f8 ff             	cmp    $0xffffffff,%eax
  40172d:	0f 84 a6 01 00 00    	je     4018d9 <send_msg_2+0x1cd>
  401733:	bf 00 00 00 00       	mov    $0x0,%edi
  401738:	e8 c3 f4 ff ff       	callq  400c00 <close@plt>
  40173d:	83 f8 ff             	cmp    $0xffffffff,%eax
  401740:	0f 84 a9 01 00 00    	je     4018ef <send_msg_2+0x1e3>
  401746:	e8 e5 f4 ff ff       	callq  400c30 <tmpfile@plt>
  40174b:	48 89 c5             	mov    %rax,%rbp
  40174e:	48 85 c0             	test   %rax,%rax
  401751:	0f 84 ae 01 00 00    	je     401905 <send_msg_2+0x1f9>
  401757:	48 89 c1             	mov    %rax,%rcx
  40175a:	ba 1b 00 00 00       	mov    $0x1b,%edx
  40175f:	be 01 00 00 00       	mov    $0x1,%esi
  401764:	48 8d 3d d9 08 00 00 	lea    0x8d9(%rip),%rdi        # 402044 <array.3073+0x284>
  40176b:	e8 a0 f5 ff ff       	callq  400d10 <fwrite@plt>
  401770:	48 89 ee             	mov    %rbp,%rsi
  401773:	bf 0a 00 00 00       	mov    $0xa,%edi
  401778:	e8 93 f4 ff ff       	callq  400c10 <fputc@plt>
  40177d:	bf 00 00 00 00       	mov    $0x0,%edi
  401782:	e8 29 f5 ff ff       	callq  400cb0 <cuserid@plt>
  401787:	48 85 c0             	test   %rax,%rax
  40178a:	0f 84 8b 01 00 00    	je     40191b <send_msg_2+0x20f>
  401790:	48 8d 7c 24 10       	lea    0x10(%rsp),%rdi
  401795:	48 89 c6             	mov    %rax,%rsi
  401798:	e8 e3 f3 ff ff       	callq  400b80 <strcpy@plt>
  40179d:	85 db                	test   %ebx,%ebx
  40179f:	48 8d 05 f3 07 00 00 	lea    0x7f3(%rip),%rax        # 401f99 <array.3073+0x1d9>
  4017a6:	4c 8d 0d e4 07 00 00 	lea    0x7e4(%rip),%r9        # 401f91 <array.3073+0x1d1>
  4017ad:	4c 0f 44 c8          	cmove  %rax,%r9
  4017b1:	48 83 ec 08          	sub    $0x8,%rsp
  4017b5:	8b 05 c1 1d 20 00    	mov    0x201dc1(%rip),%eax        # 60357c <num_input_strings>
  4017bb:	50                   	push   %rax
  4017bc:	4c 8d 44 24 20       	lea    0x20(%rsp),%r8
  4017c1:	8b 0d 79 1d 20 00    	mov    0x201d79(%rip),%ecx        # 603540 <bomb_id>
  4017c7:	48 8d 15 72 19 20 00 	lea    0x201972(%rip),%rdx        # 603140 <lab_id>
  4017ce:	48 8d 35 e8 07 00 00 	lea    0x7e8(%rip),%rsi        # 401fbd <array.3073+0x1fd>
  4017d5:	48 89 ef             	mov    %rbp,%rdi
  4017d8:	b8 00 00 00 00       	mov    $0x0,%eax
  4017dd:	e8 7e f4 ff ff       	callq  400c60 <fprintf@plt>
  4017e2:	48 83 c4 10          	add    $0x10,%rsp
  4017e6:	83 3d 8f 1d 20 00 00 	cmpl   $0x0,0x201d8f(%rip)        # 60357c <num_input_strings>
  4017ed:	7e 60                	jle    40184f <send_msg_2+0x143>
  4017ef:	bb 00 00 00 00       	mov    $0x0,%ebx
  4017f4:	4c 8d 3d a5 1d 20 00 	lea    0x201da5(%rip),%r15        # 6035a0 <input_strings>
  4017fb:	4c 8d 74 24 10       	lea    0x10(%rsp),%r14
  401800:	4c 8d 2d 39 19 20 00 	lea    0x201939(%rip),%r13        # 603140 <lab_id>
  401807:	4c 8d 25 cb 07 00 00 	lea    0x7cb(%rip),%r12        # 401fd9 <array.3073+0x219>
  40180e:	48 63 c3             	movslq %ebx,%rax
  401811:	48 8d 04 80          	lea    (%rax,%rax,4),%rax
  401815:	48 c1 e0 04          	shl    $0x4,%rax
  401819:	4c 01 f8             	add    %r15,%rax
  40181c:	83 c3 01             	add    $0x1,%ebx
  40181f:	48 83 ec 08          	sub    $0x8,%rsp
  401823:	50                   	push   %rax
  401824:	41 89 d9             	mov    %ebx,%r9d
  401827:	4d 89 f0             	mov    %r14,%r8
  40182a:	8b 0d 10 1d 20 00    	mov    0x201d10(%rip),%ecx        # 603540 <bomb_id>
  401830:	4c 89 ea             	mov    %r13,%rdx
  401833:	4c 89 e6             	mov    %r12,%rsi
  401836:	48 89 ef             	mov    %rbp,%rdi
  401839:	b8 00 00 00 00       	mov    $0x0,%eax
  40183e:	e8 1d f4 ff ff       	callq  400c60 <fprintf@plt>
  401843:	48 83 c4 10          	add    $0x10,%rsp
  401847:	39 1d 2f 1d 20 00    	cmp    %ebx,0x201d2f(%rip)        # 60357c <num_input_strings>
  40184d:	7f bf                	jg     40180e <send_msg_2+0x102>
  40184f:	48 89 ef             	mov    %rbp,%rdi
  401852:	e8 89 f3 ff ff       	callq  400be0 <rewind@plt>
  401857:	4c 8d 05 02 08 00 00 	lea    0x802(%rip),%r8        # 402060 <array.3073+0x2a0>
  40185e:	48 8d 0d 05 08 00 00 	lea    0x805(%rip),%rcx        # 40206a <array.3073+0x2aa>
  401865:	48 8d 15 09 08 00 00 	lea    0x809(%rip),%rdx        # 402075 <array.3073+0x2b5>
  40186c:	48 8d 35 19 08 00 00 	lea    0x819(%rip),%rsi        # 40208c <array.3073+0x2cc>
  401873:	48 8d 3d 66 23 20 00 	lea    0x202366(%rip),%rdi        # 603be0 <scratch>
  40187a:	b8 00 00 00 00       	mov    $0x0,%eax
  40187f:	e8 5c f4 ff ff       	callq  400ce0 <sprintf@plt>
  401884:	48 8d 3d 55 23 20 00 	lea    0x202355(%rip),%rdi        # 603be0 <scratch>
  40188b:	e8 30 f3 ff ff       	callq  400bc0 <system@plt>
  401890:	85 c0                	test   %eax,%eax
  401892:	0f 85 9c 00 00 00    	jne    401934 <send_msg_2+0x228>
  401898:	48 89 ef             	mov    %rbp,%rdi
  40189b:	e8 10 f3 ff ff       	callq  400bb0 <fclose@plt>
  4018a0:	85 c0                	test   %eax,%eax
  4018a2:	0f 85 a2 00 00 00    	jne    40194a <send_msg_2+0x23e>
  4018a8:	8b 7c 24 0c          	mov    0xc(%rsp),%edi
  4018ac:	e8 3f f3 ff ff       	callq  400bf0 <dup@plt>
  4018b1:	85 c0                	test   %eax,%eax
  4018b3:	0f 85 a7 00 00 00    	jne    401960 <send_msg_2+0x254>
  4018b9:	8b 7c 24 0c          	mov    0xc(%rsp),%edi
  4018bd:	e8 3e f3 ff ff       	callq  400c00 <close@plt>
  4018c2:	85 c0                	test   %eax,%eax
  4018c4:	0f 85 ac 00 00 00    	jne    401976 <send_msg_2+0x26a>
  4018ca:	48 83 c4 68          	add    $0x68,%rsp
  4018ce:	5b                   	pop    %rbx
  4018cf:	5d                   	pop    %rbp
  4018d0:	41 5c                	pop    %r12
  4018d2:	41 5d                	pop    %r13
  4018d4:	41 5e                	pop    %r14
  4018d6:	41 5f                	pop    %r15
  4018d8:	c3                   	retq   
  4018d9:	48 8d 3d 28 07 00 00 	lea    0x728(%rip),%rdi        # 402008 <array.3073+0x248>
  4018e0:	e8 ab f2 ff ff       	callq  400b90 <puts@plt>
  4018e5:	bf 08 00 00 00       	mov    $0x8,%edi
  4018ea:	e8 01 f4 ff ff       	callq  400cf0 <exit@plt>
  4018ef:	48 8d 3d 26 07 00 00 	lea    0x726(%rip),%rdi        # 40201c <array.3073+0x25c>
  4018f6:	e8 95 f2 ff ff       	callq  400b90 <puts@plt>
  4018fb:	bf 08 00 00 00       	mov    $0x8,%edi
  401900:	e8 eb f3 ff ff       	callq  400cf0 <exit@plt>
  401905:	48 8d 3d 23 07 00 00 	lea    0x723(%rip),%rdi        # 40202f <array.3073+0x26f>
  40190c:	e8 7f f2 ff ff       	callq  400b90 <puts@plt>
  401911:	bf 08 00 00 00       	mov    $0x8,%edi
  401916:	e8 d5 f3 ff ff       	callq  400cf0 <exit@plt>
  40191b:	c7 44 24 10 6e 6f 62 	movl   $0x6f626f6e,0x10(%rsp)
  401922:	6f 
  401923:	66 c7 44 24 14 64 79 	movw   $0x7964,0x14(%rsp)
  40192a:	c6 44 24 16 00       	movb   $0x0,0x16(%rsp)
  40192f:	e9 69 fe ff ff       	jmpq   40179d <send_msg_2+0x91>
  401934:	48 8d 3d 5a 07 00 00 	lea    0x75a(%rip),%rdi        # 402095 <array.3073+0x2d5>
  40193b:	e8 50 f2 ff ff       	callq  400b90 <puts@plt>
  401940:	bf 08 00 00 00       	mov    $0x8,%edi
  401945:	e8 a6 f3 ff ff       	callq  400cf0 <exit@plt>
  40194a:	48 8d 3d 5e 07 00 00 	lea    0x75e(%rip),%rdi        # 4020af <array.3073+0x2ef>
  401951:	e8 3a f2 ff ff       	callq  400b90 <puts@plt>
  401956:	bf 08 00 00 00       	mov    $0x8,%edi
  40195b:	e8 90 f3 ff ff       	callq  400cf0 <exit@plt>
  401960:	48 8d 3d 61 07 00 00 	lea    0x761(%rip),%rdi        # 4020c8 <array.3073+0x308>
  401967:	e8 24 f2 ff ff       	callq  400b90 <puts@plt>
  40196c:	bf 08 00 00 00       	mov    $0x8,%edi
  401971:	e8 7a f3 ff ff       	callq  400cf0 <exit@plt>
  401976:	48 8d 3d 66 07 00 00 	lea    0x766(%rip),%rdi        # 4020e3 <array.3073+0x323>
  40197d:	e8 0e f2 ff ff       	callq  400b90 <puts@plt>
  401982:	bf 08 00 00 00       	mov    $0x8,%edi
  401987:	e8 64 f3 ff ff       	callq  400cf0 <exit@plt>

000000000040198c <explode_bomb>:
  40198c:	48 83 ec 08          	sub    $0x8,%rsp
  401990:	48 8d 3d 63 07 00 00 	lea    0x763(%rip),%rdi        # 4020fa <array.3073+0x33a>
  401997:	e8 f4 f1 ff ff       	callq  400b90 <puts@plt>
  40199c:	48 8d 3d 60 07 00 00 	lea    0x760(%rip),%rdi        # 402103 <array.3073+0x343>
  4019a3:	e8 e8 f1 ff ff       	callq  400b90 <puts@plt>
  4019a8:	bf 00 00 00 00       	mov    $0x0,%edi
  4019ad:	e8 17 fa ff ff       	callq  4013c9 <send_msg>
  4019b2:	48 8d 3d 7f 04 00 00 	lea    0x47f(%rip),%rdi        # 401e38 <array.3073+0x78>
  4019b9:	e8 d2 f1 ff ff       	callq  400b90 <puts@plt>
  4019be:	bf 08 00 00 00       	mov    $0x8,%edi
  4019c3:	e8 28 f3 ff ff       	callq  400cf0 <exit@plt>

00000000004019c8 <read_six_numbers>:
  4019c8:	48 83 ec 08          	sub    $0x8,%rsp
  4019cc:	48 89 f2             	mov    %rsi,%rdx
  4019cf:	48 8d 4e 04          	lea    0x4(%rsi),%rcx
  4019d3:	48 8d 46 14          	lea    0x14(%rsi),%rax
  4019d7:	50                   	push   %rax
  4019d8:	48 8d 46 10          	lea    0x10(%rsi),%rax
  4019dc:	50                   	push   %rax
  4019dd:	4c 8d 4e 0c          	lea    0xc(%rsi),%r9
  4019e1:	4c 8d 46 08          	lea    0x8(%rsi),%r8
  4019e5:	48 8d 35 2e 07 00 00 	lea    0x72e(%rip),%rsi        # 40211a <array.3073+0x35a>
  4019ec:	b8 00 00 00 00       	mov    $0x0,%eax
  4019f1:	e8 9a f2 ff ff       	callq  400c90 <__isoc99_sscanf@plt>
  4019f6:	48 83 c4 10          	add    $0x10,%rsp
  4019fa:	83 f8 05             	cmp    $0x5,%eax
  4019fd:	7e 05                	jle    401a04 <read_six_numbers+0x3c>
  4019ff:	48 83 c4 08          	add    $0x8,%rsp
  401a03:	c3                   	retq   
  401a04:	e8 83 ff ff ff       	callq  40198c <explode_bomb>

0000000000401a09 <read_line>:
  401a09:	48 83 ec 08          	sub    $0x8,%rsp
  401a0d:	b8 00 00 00 00       	mov    $0x0,%eax
  401a12:	e8 04 f9 ff ff       	callq  40131b <skip>
  401a17:	48 85 c0             	test   %rax,%rax
  401a1a:	74 6f                	je     401a8b <read_line+0x82>
  401a1c:	8b 35 5a 1b 20 00    	mov    0x201b5a(%rip),%esi        # 60357c <num_input_strings>
  401a22:	48 63 c6             	movslq %esi,%rax
  401a25:	48 8d 14 80          	lea    (%rax,%rax,4),%rdx
  401a29:	48 c1 e2 04          	shl    $0x4,%rdx
  401a2d:	48 8d 05 6c 1b 20 00 	lea    0x201b6c(%rip),%rax        # 6035a0 <input_strings>
  401a34:	48 01 c2             	add    %rax,%rdx
  401a37:	b8 00 00 00 00       	mov    $0x0,%eax
  401a3c:	48 c7 c1 ff ff ff ff 	mov    $0xffffffffffffffff,%rcx
  401a43:	48 89 d7             	mov    %rdx,%rdi
  401a46:	f2 ae                	repnz scas %es:(%rdi),%al
  401a48:	48 f7 d1             	not    %rcx
  401a4b:	48 83 e9 01          	sub    $0x1,%rcx
  401a4f:	83 f9 4f             	cmp    $0x4f,%ecx
  401a52:	0f 84 a1 00 00 00    	je     401af9 <read_line+0xf0>
  401a58:	83 e9 01             	sub    $0x1,%ecx
  401a5b:	48 63 c9             	movslq %ecx,%rcx
  401a5e:	48 63 c6             	movslq %esi,%rax
  401a61:	48 8d 04 80          	lea    (%rax,%rax,4),%rax
  401a65:	48 c1 e0 04          	shl    $0x4,%rax
  401a69:	48 89 c7             	mov    %rax,%rdi
  401a6c:	48 8d 05 2d 1b 20 00 	lea    0x201b2d(%rip),%rax        # 6035a0 <input_strings>
  401a73:	48 01 f8             	add    %rdi,%rax
  401a76:	c6 04 08 00          	movb   $0x0,(%rax,%rcx,1)
  401a7a:	83 c6 01             	add    $0x1,%esi
  401a7d:	89 35 f9 1a 20 00    	mov    %esi,0x201af9(%rip)        # 60357c <num_input_strings>
  401a83:	48 89 d0             	mov    %rdx,%rax
  401a86:	48 83 c4 08          	add    $0x8,%rsp
  401a8a:	c3                   	retq   
  401a8b:	48 8b 05 de 1a 20 00 	mov    0x201ade(%rip),%rax        # 603570 <stdin@@GLIBC_2.2.5>
  401a92:	48 39 05 e7 1a 20 00 	cmp    %rax,0x201ae7(%rip)        # 603580 <infile>
  401a99:	74 43                	je     401ade <read_line+0xd5>
  401a9b:	48 8d 3d a8 06 00 00 	lea    0x6a8(%rip),%rdi        # 40214a <array.3073+0x38a>
  401aa2:	e8 b9 f0 ff ff       	callq  400b60 <getenv@plt>
  401aa7:	48 85 c0             	test   %rax,%rax
  401aaa:	75 43                	jne    401aef <read_line+0xe6>
  401aac:	48 8b 05 bd 1a 20 00 	mov    0x201abd(%rip),%rax        # 603570 <stdin@@GLIBC_2.2.5>
  401ab3:	48 89 05 c6 1a 20 00 	mov    %rax,0x201ac6(%rip)        # 603580 <infile>
  401aba:	b8 00 00 00 00       	mov    $0x0,%eax
  401abf:	e8 57 f8 ff ff       	callq  40131b <skip>
  401ac4:	48 85 c0             	test   %rax,%rax
  401ac7:	0f 85 4f ff ff ff    	jne    401a1c <read_line+0x13>
  401acd:	48 8d 3d 58 06 00 00 	lea    0x658(%rip),%rdi        # 40212c <array.3073+0x36c>
  401ad4:	e8 b7 f0 ff ff       	callq  400b90 <puts@plt>
  401ad9:	e8 ae fe ff ff       	callq  40198c <explode_bomb>
  401ade:	48 8d 3d 47 06 00 00 	lea    0x647(%rip),%rdi        # 40212c <array.3073+0x36c>
  401ae5:	e8 a6 f0 ff ff       	callq  400b90 <puts@plt>
  401aea:	e8 9d fe ff ff       	callq  40198c <explode_bomb>
  401aef:	bf 00 00 00 00       	mov    $0x0,%edi
  401af4:	e8 f7 f1 ff ff       	callq  400cf0 <exit@plt>
  401af9:	48 8d 3d 55 06 00 00 	lea    0x655(%rip),%rdi        # 402155 <array.3073+0x395>
  401b00:	e8 8b f0 ff ff       	callq  400b90 <puts@plt>
  401b05:	e8 82 fe ff ff       	callq  40198c <explode_bomb>

0000000000401b0a <phase_defused>:
  401b0a:	48 83 ec 78          	sub    $0x78,%rsp
  401b0e:	bf 01 00 00 00       	mov    $0x1,%edi
  401b13:	e8 b1 f8 ff ff       	callq  4013c9 <send_msg>
  401b18:	83 3d 5d 1a 20 00 03 	cmpl   $0x3,0x201a5d(%rip)        # 60357c <num_input_strings>
  401b1f:	74 05                	je     401b26 <phase_defused+0x1c>
  401b21:	48 83 c4 78          	add    $0x78,%rsp
  401b25:	c3                   	retq   
  401b26:	48 8d 4c 24 18       	lea    0x18(%rsp),%rcx
  401b2b:	48 8d 54 24 1c       	lea    0x1c(%rsp),%rdx
  401b30:	48 83 ec 08          	sub    $0x8,%rsp
  401b34:	48 8d 44 24 28       	lea    0x28(%rsp),%rax
  401b39:	50                   	push   %rax
  401b3a:	48 8d 44 24 18       	lea    0x18(%rsp),%rax
  401b3f:	50                   	push   %rax
  401b40:	48 8d 44 24 24       	lea    0x24(%rsp),%rax
  401b45:	50                   	push   %rax
  401b46:	4c 8d 4c 24 30       	lea    0x30(%rsp),%r9
  401b4b:	4c 8d 44 24 34       	lea    0x34(%rsp),%r8
  401b50:	48 8d 35 19 06 00 00 	lea    0x619(%rip),%rsi        # 402170 <array.3073+0x3b0>
  401b57:	48 8d 3d 92 1a 20 00 	lea    0x201a92(%rip),%rdi        # 6035f0 <input_strings+0x50>
  401b5e:	b8 00 00 00 00       	mov    $0x0,%eax
  401b63:	e8 28 f1 ff ff       	callq  400c90 <__isoc99_sscanf@plt>
  401b68:	48 83 c4 20          	add    $0x20,%rsp
  401b6c:	83 f8 07             	cmp    $0x7,%eax
  401b6f:	74 1a                	je     401b8b <phase_defused+0x81>
  401b71:	48 8d 3d 48 03 00 00 	lea    0x348(%rip),%rdi        # 401ec0 <array.3073+0x100>
  401b78:	e8 13 f0 ff ff       	callq  400b90 <puts@plt>
  401b7d:	48 8d 3d 6c 03 00 00 	lea    0x36c(%rip),%rdi        # 401ef0 <array.3073+0x130>
  401b84:	e8 07 f0 ff ff       	callq  400b90 <puts@plt>
  401b89:	eb 96                	jmp    401b21 <phase_defused+0x17>
  401b8b:	48 8d 7c 24 20       	lea    0x20(%rsp),%rdi
  401b90:	48 8d 35 ee 05 00 00 	lea    0x5ee(%rip),%rsi        # 402185 <array.3073+0x3c5>
  401b97:	e8 e0 f5 ff ff       	callq  40117c <strings_not_equal>
  401b9c:	85 c0                	test   %eax,%eax
  401b9e:	75 d1                	jne    401b71 <phase_defused+0x67>
  401ba0:	48 8d 3d b9 02 00 00 	lea    0x2b9(%rip),%rdi        # 401e60 <array.3073+0xa0>
  401ba7:	e8 e4 ef ff ff       	callq  400b90 <puts@plt>
  401bac:	48 8d 3d d5 02 00 00 	lea    0x2d5(%rip),%rdi        # 401e88 <array.3073+0xc8>
  401bb3:	e8 d8 ef ff ff       	callq  400b90 <puts@plt>
  401bb8:	b8 00 00 00 00       	mov    $0x0,%eax
  401bbd:	e8 9e f4 ff ff       	callq  401060 <secret_phase>
  401bc2:	eb ad                	jmp    401b71 <phase_defused+0x67>
  401bc4:	66 2e 0f 1f 84 00 00 	nopw   %cs:0x0(%rax,%rax,1)
  401bcb:	00 00 00 
  401bce:	66 90                	xchg   %ax,%ax

0000000000401bd0 <__libc_csu_init>:
  401bd0:	41 57                	push   %r15
  401bd2:	41 56                	push   %r14
  401bd4:	41 89 ff             	mov    %edi,%r15d
  401bd7:	41 55                	push   %r13
  401bd9:	41 54                	push   %r12
  401bdb:	4c 8d 25 26 12 20 00 	lea    0x201226(%rip),%r12        # 602e08 <__frame_dummy_init_array_entry>
  401be2:	55                   	push   %rbp
  401be3:	48 8d 2d 26 12 20 00 	lea    0x201226(%rip),%rbp        # 602e10 <__init_array_end>
  401bea:	53                   	push   %rbx
  401beb:	49 89 f6             	mov    %rsi,%r14
  401bee:	49 89 d5             	mov    %rdx,%r13
  401bf1:	4c 29 e5             	sub    %r12,%rbp
  401bf4:	48 83 ec 08          	sub    $0x8,%rsp
  401bf8:	48 c1 fd 03          	sar    $0x3,%rbp
  401bfc:	e8 2f ef ff ff       	callq  400b30 <_init>
  401c01:	48 85 ed             	test   %rbp,%rbp
  401c04:	74 20                	je     401c26 <__libc_csu_init+0x56>
  401c06:	31 db                	xor    %ebx,%ebx
  401c08:	0f 1f 84 00 00 00 00 	nopl   0x0(%rax,%rax,1)
  401c0f:	00 
  401c10:	4c 89 ea             	mov    %r13,%rdx
  401c13:	4c 89 f6             	mov    %r14,%rsi
  401c16:	44 89 ff             	mov    %r15d,%edi
  401c19:	41 ff 14 dc          	callq  *(%r12,%rbx,8)
  401c1d:	48 83 c3 01          	add    $0x1,%rbx
  401c21:	48 39 dd             	cmp    %rbx,%rbp
  401c24:	75 ea                	jne    401c10 <__libc_csu_init+0x40>
  401c26:	48 83 c4 08          	add    $0x8,%rsp
  401c2a:	5b                   	pop    %rbx
  401c2b:	5d                   	pop    %rbp
  401c2c:	41 5c                	pop    %r12
  401c2e:	41 5d                	pop    %r13
  401c30:	41 5e                	pop    %r14
  401c32:	41 5f                	pop    %r15
  401c34:	c3                   	retq   
  401c35:	90                   	nop
  401c36:	66 2e 0f 1f 84 00 00 	nopw   %cs:0x0(%rax,%rax,1)
  401c3d:	00 00 00 

0000000000401c40 <__libc_csu_fini>:
  401c40:	f3 c3                	repz retq 

Disassembly of section .fini:

0000000000401c44 <_fini>:
  401c44:	48 83 ec 08          	sub    $0x8,%rsp
  401c48:	48 83 c4 08          	add    $0x8,%rsp
  401c4c:	c3                   	retq   
